; Function Attrs: mustprogress uwtable
define void @_ZN20llama_grammar_parser8add_ruleEjRKSt6vectorI21llama_grammar_elementSaIS1_EE(ptr noundef nonnull align 8 dereferenceable(72) %0, i32 noundef %1, ptr noundef nonnull align 8 dereferenceable(24) %2) local_unnamed_addr #0 align 2 personality ptr @__gxx_personality_v0 {
  %4 = getelementptr inbounds nuw i8, ptr %0, i64 48
  %5 = getelementptr inbounds nuw i8, ptr %0, i64 56
  %6 = load ptr, ptr %5, align 8, !tbaa !44
  %7 = load ptr, ptr %4, align 8, !tbaa !47
  %8 = ptrtoint ptr %6 to i64
  %9 = ptrtoint ptr %7 to i64
  %10 = sub i64 %8, %9
  %11 = sdiv exact i64 %10, 24
  %12 = zext i32 %1 to i64
  %.not = icmp ugt i64 %11, %12
  br i1 %.not, label %_ZNSt6vectorIS_I21llama_grammar_elementSaIS0_EESaIS2_EE6resizeEm.exit, label %13

13:                                               ; preds = %3
  %14 = add i32 %1, 1
  %15 = zext i32 %14 to i64
  %16 = icmp samesign ult i64 %11, %15
  br i1 %16, label %17, label %19

17:                                               ; preds = %13
  %18 = sub nuw nsw i64 %15, %11
  tail call void @_ZNSt6vectorIS_I21llama_grammar_elementSaIS0_EESaIS2_EE17_M_default_appendEm(ptr noundef nonnull align 8 dereferenceable(24) %4, i64 noundef %18)
  br label %_ZNSt6vectorIS_I21llama_grammar_elementSaIS0_EESaIS2_EE6resizeEm.exit

19:                                               ; preds = %13
  %20 = icmp samesign ugt i64 %11, %15
  br i1 %20, label %21, label %_ZNSt6vectorIS_I21llama_grammar_elementSaIS0_EESaIS2_EE6resizeEm.exit

21:                                               ; preds = %19
  %22 = getelementptr inbounds nuw %"class.std::vector.9", ptr %7, i64 %15
  %.not.i.i = icmp eq ptr %6, %22
  br i1 %.not.i.i, label %_ZNSt6vectorIS_I21llama_grammar_elementSaIS0_EESaIS2_EE6resizeEm.exit, label %.lr.ph.i.i.i.i.i

.lr.ph.i.i.i.i.i:                                 ; preds = %21, %_ZSt8_DestroyISt6vectorI21llama_grammar_elementSaIS1_EEEvPT_.exit.i.i.i.i.i
  %.05.i.i.i.i.i = phi ptr [ %30, %_ZSt8_DestroyISt6vectorI21llama_grammar_elementSaIS1_EEEvPT_.exit.i.i.i.i.i ], [ %22, %21 ]
  %23 = load ptr, ptr %.05.i.i.i.i.i, align 8, !tbaa !48
  %.not.i.i.i.i.i.i.i.i.i = icmp eq ptr %23, null
  br i1 %.not.i.i.i.i.i.i.i.i.i, label %_ZSt8_DestroyISt6vectorI21llama_grammar_elementSaIS1_EEEvPT_.exit.i.i.i.i.i, label %24

24:                                               ; preds = %.lr.ph.i.i.i.i.i
  %25 = getelementptr inbounds nuw i8, ptr %.05.i.i.i.i.i, i64 16
  %26 = load ptr, ptr %25, align 8, !tbaa !51
  %27 = ptrtoint ptr %26 to i64
  %28 = ptrtoint ptr %23 to i64
  %29 = sub i64 %27, %28
  tail call void @_ZdlPvm(ptr noundef nonnull %23, i64 noundef %29) #30
  br label %_ZSt8_DestroyISt6vectorI21llama_grammar_elementSaIS1_EEEvPT_.exit.i.i.i.i.i

_ZSt8_DestroyISt6vectorI21llama_grammar_elementSaIS1_EEEvPT_.exit.i.i.i.i.i: ; preds = %24, %.lr.ph.i.i.i.i.i
  %30 = getelementptr inbounds nuw i8, ptr %.05.i.i.i.i.i, i64 24
  %.not.i.i.i.i.i = icmp eq ptr %30, %6
  br i1 %.not.i.i.i.i.i, label %_ZSt8_DestroyIPSt6vectorI21llama_grammar_elementSaIS1_EES3_EvT_S5_RSaIT0_E.exit.i.i, label %.lr.ph.i.i.i.i.i, !llvm.loop !52

_ZSt8_DestroyIPSt6vectorI21llama_grammar_elementSaIS1_EES3_EvT_S5_RSaIT0_E.exit.i.i: ; preds = %_ZSt8_DestroyISt6vectorI21llama_grammar_elementSaIS1_EEEvPT_.exit.i.i.i.i.i
  store ptr %22, ptr %5, align 8, !tbaa !44
  br label %_ZNSt6vectorIS_I21llama_grammar_elementSaIS0_EESaIS2_EE6resizeEm.exit

_ZNSt6vectorIS_I21llama_grammar_elementSaIS0_EESaIS2_EE6resizeEm.exit: ; preds = %_ZSt8_DestroyIPSt6vectorI21llama_grammar_elementSaIS1_EES3_EvT_S5_RSaIT0_E.exit.i.i, %21, %19, %17, %3
  %31 = load ptr, ptr %4, align 8, !tbaa !47
  %32 = getelementptr inbounds nuw %"class.std::vector.9", ptr %31, i64 %12
  %33 = tail call noundef nonnull align 8 dereferenceable(24) ptr @_ZNSt6vectorI21llama_grammar_elementSaIS0_EEaSERKS2_(ptr noundef nonnull align 8 dereferenceable(24) %32, ptr noundef nonnull align 8 dereferenceable(24) %2)
  ret void
}